; Function Attrs: mustprogress nofree norecurse nosync nounwind willreturn memory(read, argmem: readwrite, inaccessiblemem: none) uwtable
define internal noundef i32 @_ZN7rocksdb12_GLOBAL__N_131TrackedKeysColumnFamilyIterator4NextEv(ptr noundef nonnull align 8 captures(none) dereferenceable(24) %0) unnamed_addr #12 align 2 {
  %2 = getelementptr inbounds nuw i8, ptr %0, i64 16
  %.sroa.0.0.copyload.i = load ptr, ptr %2, align 8
  %3 = load ptr, ptr %.sroa.0.0.copyload.i, align 8, !tbaa !32
  store ptr %3, ptr %2, align 8, !tbaa !74
  %4 = getelementptr inbounds nuw i8, ptr %.sroa.0.0.copyload.i, i64 8
  %5 = load i32, ptr %4, align 8, !tbaa !54
  ret i32 %5
}